; Function Attrs: mustprogress nofree norecurse nosync nounwind willreturn memory(argmem: write) uwtable
define void @ubidi_setReorderingOptions_77(ptr noundef writeonly %0, i32 noundef %1) local_unnamed_addr #6 {
  %.not5 = icmp eq ptr %0, null
  br i1 %.not5, label %7, label %3

3:                                                ; preds = %2
  %4 = and i32 %1, 2
  %.not = icmp eq i32 %4, 0
  %5 = and i32 %1, -2
  %spec.select = select i1 %.not, i32 %1, i32 %5
  %6 = getelementptr inbounds nuw i8, ptr %0, i64 136
  store i32 %spec.select, ptr %6, align 8, !tbaa !37
  br label %7

7:                                                ; preds = %3, %2
  ret void
}